libnuspell.so.3 libnuspell3 #MINVER#
 _ZN5boost9container18throw_length_errorEPKc@Base 3.0.0
 _ZN5boost9container6vectorISt4pairINSt7__cxx1112basic_stringIwSt11char_traitsIwESaIwEEEN7nuspell2v310String_SetIDsEEENS0_22small_vector_allocatorINS0_13new_allocatorISD_EEEEvE14priv_push_backIRKSD_EEvOT_@Base 3.0.0
 _ZN5boost9container6vectorISt4pairINSt7__cxx1112basic_stringIwSt11char_traitsIwESaIwEEEN7nuspell2v310String_SetIDsEEENS0_22small_vector_allocatorINS0_13new_allocatorISD_EEEEvE37priv_forward_range_insert_no_capacityINS0_3dtl17insert_copy_proxyISH_PSD_EEEENS0_12vec_iteratorISM_Lb0EEERKSM_mT_NS_11move_detail17integral_constantIjLj1EEE@Base 3.0.0
 _ZN5boost9container6vectorISt4pairINSt7__cxx1112basic_stringIwSt11char_traitsIwESaIwEEEN7nuspell2v310String_SetIDsEEENS0_22small_vector_allocatorINS0_13new_allocatorISD_EEEEvE40priv_forward_range_insert_expand_forwardINS0_3dtl17insert_copy_proxyISH_PSD_EEEEvSM_mT_@Base 3.0.0
 _ZN5boost9container6vectorISt4pairINSt7__cxx1112basic_stringIwSt11char_traitsIwESaIwEEEN7nuspell2v310String_SetIDsEEENS0_22small_vector_allocatorINS0_13new_allocatorISD_EEEEvED1Ev@Base 3.0.0
 _ZN5boost9container6vectorISt4pairINSt7__cxx1112basic_stringIwSt11char_traitsIwESaIwEEEN7nuspell2v310String_SetIDsEEENS0_22small_vector_allocatorINS0_13new_allocatorISD_EEEEvED2Ev@Base 3.0.0
 _ZN7nuspell10is_all_bmpERKNSt7__cxx1112basic_stringIDsSt11char_traitsIDsESaIDsEEE@Base 3.0.0
 _ZN7nuspell10utf8_to_16ERKNSt7__cxx1112basic_stringIcSt11char_traitsIcESaIcEEE@Base 3.0.0
 _ZN7nuspell10utf8_to_16ERKNSt7__cxx1112basic_stringIcSt11char_traitsIcESaIcEEERNS1_IDsS2_IDsESaIDsEEE@Base 3.0.0
 _ZN7nuspell10utf_to_utfILNS_18Utf_Error_HandlingE0EwNSt7__cxx1112basic_stringIcSt11char_traitsIcESaIcEEEEEbRKNS3_IT0_S4_IS8_ESaIS8_EEERT1_@Base 3.0.0
 _ZN7nuspell10utf_to_utfILNS_18Utf_Error_HandlingE1EcNSt7__cxx1112basic_stringIDsSt11char_traitsIDsESaIDsEEEEEbRKNS3_IT0_S4_IS8_ESaIS8_EEERT1_@Base 3.0.0
 _ZN7nuspell10utf_to_utfILNS_18Utf_Error_HandlingE1EcNSt7__cxx1112basic_stringIwSt11char_traitsIwESaIwEEEEEbRKNS3_IT0_S4_IS8_ESaIS8_EEERT1_@Base 3.0.0
 _ZN7nuspell11icu_to_wideERKN6icu_6313UnicodeStringERNSt7__cxx1112basic_stringIwSt11char_traitsIwESaIwEEE@Base 3.0.0
 _ZN7nuspell11wide_to_icuERKNSt7__cxx1112basic_stringIwSt11char_traitsIwESaIwEEERN6icu_6313UnicodeStringE@Base 3.0.0
 _ZN7nuspell12is_all_asciiERKNSt7__cxx1112basic_stringIcSt11char_traitsIcESaIcEEE@Base 3.0.0
 _ZN7nuspell12utf8_to_wideERKNSt7__cxx1112basic_stringIcSt11char_traitsIcESaIcEEE@Base 3.0.0
 _ZN7nuspell12utf8_to_wideERKNSt7__cxx1112basic_stringIcSt11char_traitsIcESaIcEEERNS1_IwS2_IwESaIwEEE@Base 3.0.0
 _ZN7nuspell12wide_to_utf8ERKNSt7__cxx1112basic_stringIwSt11char_traitsIwESaIwEEE@Base 3.0.0
 _ZN7nuspell12wide_to_utf8ERKNSt7__cxx1112basic_stringIwSt11char_traitsIwESaIwEEERNS1_IcS2_IcESaIcEEE@Base 3.0.0
 _ZN7nuspell14latin1_to_ucs2ERKNSt7__cxx1112basic_stringIcSt11char_traitsIcESaIcEEE@Base 3.0.0
 _ZN7nuspell14latin1_to_ucs2ERKNSt7__cxx1112basic_stringIcSt11char_traitsIcESaIcEEERNS1_IDsS2_IDsESaIDsEEE@Base 3.0.0
 _ZN7nuspell14to_upper_asciiERNSt7__cxx1112basic_stringIcSt11char_traitsIcESaIcEEE@Base 3.0.0
 _ZN7nuspell15classify_casingERKNSt7__cxx1112basic_stringIwSt11char_traitsIwESaIwEEE@Base 3.0.0
 _ZN7nuspell17get_mozilla_pathsISt20back_insert_iteratorISt6vectorINSt7__cxx1112basic_stringIcSt11char_traitsIcESaIcEEESaIS8_EEEEET_SC_@Base 3.0.0
 _ZN7nuspell17is_surrogate_pairEDs@Base 3.0.0
 _ZN7nuspell18Encoding_Converter7to_wideERKNSt7__cxx1112basic_stringIcSt11char_traitsIcESaIcEEE@Base 3.0.0
 _ZN7nuspell18Encoding_Converter7to_wideERKNSt7__cxx1112basic_stringIcSt11char_traitsIcESaIcEEERNS2_IwS3_IwESaIwEEE@Base 3.0.0
 _ZN7nuspell18Encoding_ConverterC1EPKc@Base 3.0.0
 _ZN7nuspell18Encoding_ConverterC1ERKS0_@Base 3.0.0
 _ZN7nuspell18Encoding_ConverterC2EPKc@Base 3.0.0
 _ZN7nuspell18Encoding_ConverterC2ERKS0_@Base 3.0.0
 _ZN7nuspell18Encoding_ConverterD1Ev@Base 3.0.0
 _ZN7nuspell18Encoding_ConverterD2Ev@Base 3.0.0
 _ZN7nuspell18Encoding_ConverteraSERKS0_@Base 3.0.0
 _ZN7nuspell19To_Root_Unroot_RAIIINS_2v36PrefixIwEEED1Ev@Base 3.0.0
 _ZN7nuspell19To_Root_Unroot_RAIIINS_2v36PrefixIwEEED2Ev@Base 3.0.0
 _ZN7nuspell19To_Root_Unroot_RAIIINS_2v36SuffixIwEEED1Ev@Base 3.0.0
 _ZN7nuspell19To_Root_Unroot_RAIIINS_2v36SuffixIwEEED2Ev@Base 3.0.0
 _ZN7nuspell20count_appereances_ofERKNSt7__cxx1112basic_stringIwSt11char_traitsIwESaIwEEES7_@Base 3.0.0
 _ZN7nuspell20get_openoffice_pathsISt20back_insert_iteratorISt6vectorINSt7__cxx1112basic_stringIcSt11char_traitsIcESaIcEEESaIS8_EEEEET_SC_@Base 3.0.0
 _ZN7nuspell20is_locale_known_utf8ERKSt6locale@Base 3.0.0
 _ZN7nuspell21get_libreoffice_pathsISt20back_insert_iteratorISt6vectorINSt7__cxx1112basic_stringIcSt11char_traitsIcESaIcEEESaIS8_EEEEET_SC_@Base 3.0.0
 _ZN7nuspell21search_path_for_dictsISt20back_insert_iteratorISt6vectorISt4pairINSt7__cxx1112basic_stringIcSt11char_traitsIcESaIcEEES9_ESaISA_EEEEET_RKS9_SE_@Base 3.0.0
 _ZN7nuspell22match_compound_patternERKNS_2v316Compound_PatternIwEERKNSt7__cxx1112basic_stringIwSt11char_traitsIwESaIwEEEmNS0_18Compounding_ResultESD_@Base 3.0.0
 _ZN7nuspell23Setlocale_To_C_In_ScopeD1Ev@Base 3.0.0
 _ZN7nuspell23Setlocale_To_C_In_ScopeD2Ev@Base 3.0.0
 _ZN7nuspell24get_default_search_pathsISt20back_insert_iteratorISt6vectorINSt7__cxx1112basic_stringIcSt11char_traitsIcESaIcEEESaIS8_EEEEET_SC_@Base 3.0.0
 _ZN7nuspell2v310Dictionary10imbue_utf8Ev@Base 3.0.0
 _ZN7nuspell2v310Dictionary14load_from_pathERKNSt7__cxx1112basic_stringIcSt11char_traitsIcESaIcEEE@Base 3.0.0
 _ZN7nuspell2v310Dictionary17load_from_aff_dicERSiS2_@Base 3.0.0
 _ZN7nuspell2v310Dictionary5imbueERKSt6locale@Base 3.0.0
 _ZN7nuspell2v310DictionaryC1ERSiS2_@Base 3.0.0
 _ZN7nuspell2v310DictionaryC1Ev@Base 3.0.0
 _ZN7nuspell2v310DictionaryC2ERSiS2_@Base 3.0.0
 _ZN7nuspell2v310DictionaryC2Ev@Base 3.0.0
 _ZN7nuspell2v310String_SetIDsE9sort_uniqEv@Base 3.0.0
 _ZN7nuspell2v311Break_TableIwE13order_entriesEv@Base 3.0.0
 _ZN7nuspell2v312Prefix_TableD1Ev@Base 3.0.0
 _ZN7nuspell2v312Prefix_TableD2Ev@Base 3.0.0
 _ZN7nuspell2v312Suffix_TableD1Ev@Base 3.0.0
 _ZN7nuspell2v312Suffix_TableD2Ev@Base 3.0.0
 _ZN7nuspell2v313Hash_MultisetISt4pairINSt7__cxx1112basic_stringIwSt11char_traitsIwESaIwEEENS0_10String_SetIDsEEES8_NS0_28Extractor_First_of_Word_PairEE27equal_range_nonconst_unsafeERKS8_@Base 3.0.0
 _ZN7nuspell2v313Hash_MultisetISt4pairINSt7__cxx1112basic_stringIwSt11char_traitsIwESaIwEEENS0_10String_SetIDsEEES8_NS0_28Extractor_First_of_Word_PairEE6insertERKSB_@Base 3.0.0
 _ZN7nuspell2v313Hash_MultisetISt4pairINSt7__cxx1112basic_stringIwSt11char_traitsIwESaIwEEENS0_10String_SetIDsEEES8_NS0_28Extractor_First_of_Word_PairEE6rehashEm@Base 3.0.0
 _ZN7nuspell2v313Hash_MultisetISt4pairINSt7__cxx1112basic_stringIwSt11char_traitsIwESaIwEEENS0_10String_SetIDsEEES8_NS0_28Extractor_First_of_Word_PairEE7emplaceIJRS8_RNS4_IDsS5_IDsESaIDsEEEEEEDaDpOT_@Base 3.0.0
 _ZN7nuspell2v314Phonetic_TableIwE5matchERKNSt7__cxx1112basic_stringIwSt11char_traitsIwESaIwEEEmSA_b@Base 3.0.0
 _ZN7nuspell2v314Phonetic_TableIwE5orderEv@Base 3.0.0
 _ZN7nuspell2v315Prefix_MultisetINS0_6PrefixIwEENS0_33Extractor_Of_Appending_From_AffixIS3_EENS0_8identityEE16Iter_Prefixes_Of7advanceEv@Base 3.0.0
 _ZN7nuspell2v315Prefix_MultisetINS0_6SuffixIwEENS0_33Extractor_Of_Appending_From_AffixIS3_EENS0_15String_ReverserIwEEE16Iter_Prefixes_Of7advanceEv@Base 3.0.0
 _ZN7nuspell2v315Substr_ReplacerIwE9sort_uniqEv@Base 3.0.0
 _ZN7nuspell2v316Similarity_GroupIwE5parseERKNSt7__cxx1112basic_stringIwSt11char_traitsIwESaIwEEE@Base 3.0.0
 _ZN7nuspell2v316Similarity_GroupIwED1Ev@Base 3.0.0
 _ZN7nuspell2v316Similarity_GroupIwED2Ev@Base 3.0.0
 _ZN7nuspell2v317Replacement_TableIwE13order_entriesEv@Base 3.0.0
 _ZN7nuspell2v318List_Basic_StringsIwED1Ev@Base 3.0.0
 _ZN7nuspell2v318List_Basic_StringsIwED2Ev@Base 3.0.0
 _ZN7nuspell2v318match_simple_regexIN9__gnu_cxx17__normal_iteratorIPKPKNS0_10String_SetIDsEESt6vectorIS7_SaIS7_EEEENS3_IPKDsNSt7__cxx1112basic_stringIDsSt11char_traitsIDsESaIDsEEEEEZNS0_18match_compund_ruleERKSC_RKSL_EUlS7_DsE_EEDaT_SS_T0_ST_T1_@Base 3.0.0
 _ZN7nuspell2v319Compound_Rule_TableD1Ev@Base 3.0.0
 _ZN7nuspell2v319Compound_Rule_TableD2Ev@Base 3.0.0
 _ZN7nuspell2v319Condition_ExceptionD0Ev@Base 3.0.0
 _ZN7nuspell2v319Condition_ExceptionD1Ev@Base 3.0.0
 _ZN7nuspell2v319Condition_ExceptionD2Ev@Base 3.0.0
 _ZN7nuspell2v324Dictionary_Loading_ErrorD0Ev@Base 3.0.0
 _ZN7nuspell2v324Dictionary_Loading_ErrorD1Ev@Base 3.0.0
 _ZN7nuspell2v324Dictionary_Loading_ErrorD2Ev@Base 3.0.0
 _ZN7nuspell2v36Finder21add_default_dir_pathsEv@Base 3.0.0
 _ZN7nuspell2v36Finder21add_mozilla_dir_pathsEv@Base 3.0.0
 _ZN7nuspell2v36Finder23search_for_dictionariesEv@Base 3.0.0
 _ZN7nuspell2v36Finder24add_openoffice_dir_pathsEv@Base 3.0.0
 _ZN7nuspell2v36Finder25add_libreoffice_dir_pathsEv@Base 3.0.0
 _ZN7nuspell2v36Finder25search_all_dirs_for_dictsEv@Base 3.0.0
 _ZN7nuspell2v36PrefixIwEC1EOS2_@Base 3.0.0
 _ZN7nuspell2v36PrefixIwEC2EOS2_@Base 3.0.0
 _ZN7nuspell2v36PrefixIwED1Ev@Base 3.0.0
 _ZN7nuspell2v36PrefixIwED2Ev@Base 3.0.0
 _ZN7nuspell2v36PrefixIwEaSEOS2_@Base 3.0.0
 _ZN7nuspell2v36SuffixIwEC1EOS2_@Base 3.0.0
 _ZN7nuspell2v36SuffixIwEC2EOS2_@Base 3.0.0
 _ZN7nuspell2v36SuffixIwED1Ev@Base 3.0.0
 _ZN7nuspell2v36SuffixIwED2Ev@Base 3.0.0
 _ZN7nuspell2v36SuffixIwEaSEOS2_@Base 3.0.0
 _ZN7nuspell2v38Aff_Data9parse_affERSi@Base 3.0.0
 _ZN7nuspell2v38Aff_Data9parse_dicERSi@Base 3.0.0
 _ZN7nuspell2v38Aff_DataD1Ev@Base 3.0.0
 _ZN7nuspell2v38Aff_DataD2Ev@Base 3.0.0
 _ZN7nuspell2v38Encoding14normalize_nameEv@Base 3.0.0
 _ZN7nuspell2v39ConditionIwE9constructEv@Base 3.0.0
 _ZN7nuspell31dic_find_end_of_word_heuristicsERKNSt7__cxx1112basic_stringIcSt11char_traitsIcESaIcEEE@Base 3.0.0
 _ZN7nuspell33is_compound_forbidden_by_patternsERKSt6vectorINS_2v316Compound_PatternIwEESaIS3_EERKNSt7__cxx1112basic_stringIwSt11char_traitsIwESaIwEEEmNS1_18Compounding_ResultESG_@Base 3.0.0
 _ZN7nuspell39has_uppercase_at_compound_word_boundaryERKNSt7__cxx1112basic_stringIwSt11char_traitsIwESaIwEEEm@Base 3.0.0
 _ZN7nuspell7to_wideERKNSt7__cxx1112basic_stringIcSt11char_traitsIcESaIcEEERKSt6locale@Base 3.0.0
 _ZN7nuspell7to_wideERKNSt7__cxx1112basic_stringIcSt11char_traitsIcESaIcEEERKSt6localeRNS1_IwS2_IwESaIwEEE@Base 3.0.0
 _ZN7nuspell8is_asciiEc@Base 3.0.0
 _ZN7nuspell8to_lowerERKNSt7__cxx1112basic_stringIwSt11char_traitsIwESaIwEEERKN6icu_636LocaleE@Base 3.0.0
 _ZN7nuspell8to_titleERKNSt7__cxx1112basic_stringIwSt11char_traitsIwESaIwEEERKN6icu_636LocaleE@Base 3.0.0
 _ZN7nuspell8to_upperERKNSt7__cxx1112basic_stringIwSt11char_traitsIwESaIwEEERKN6icu_636LocaleE@Base 3.0.0
 _ZN7nuspell9to_narrowERKNSt7__cxx1112basic_stringIwSt11char_traitsIwESaIwEEERKSt6locale@Base 3.0.0
 _ZN7nuspell9to_narrowERKNSt7__cxx1112basic_stringIwSt11char_traitsIwESaIwEEERNS1_IcS2_IcESaIcEEERKSt6locale@Base 3.0.0
 _ZNK7nuspell2v310Dictionary29external_to_internal_encodingERKNSt7__cxx1112basic_stringIcSt11char_traitsIcESaIcEEERNS3_IwS4_IwESaIwEEE@Base 3.0.0
 _ZNK7nuspell2v310Dictionary29internal_to_external_encodingERKNSt7__cxx1112basic_stringIwSt11char_traitsIwESaIwEEERNS3_IcS4_IcESaIcEEE@Base 3.0.0
 _ZNK7nuspell2v310Dictionary5spellERKNSt7__cxx1112basic_stringIcSt11char_traitsIcESaIcEEE@Base 3.0.0
 _ZNK7nuspell2v310Dictionary7suggestERKNSt7__cxx1112basic_stringIcSt11char_traitsIcESaIcEEERSt6vectorIS7_SaIS7_EE@Base 3.0.0
 _ZNK7nuspell2v313Hash_MultisetISt4pairINSt7__cxx1112basic_stringIwSt11char_traitsIwESaIwEEENS0_10String_SetIDsEEES8_NS0_28Extractor_First_of_Word_PairEE11equal_rangeERKS8_@Base 3.0.0
 _ZNK7nuspell2v314Phonetic_TableIwE7replaceERNSt7__cxx1112basic_stringIwSt11char_traitsIwESaIwEEE@Base 3.0.0
 _ZNK7nuspell2v315Substr_ReplacerIwE10find_matchB5cxx11ESt17basic_string_viewIwSt11char_traitsIwEE@Base 3.0.0
 _ZNK7nuspell2v36Finder11equal_rangeERKNSt7__cxx1112basic_stringIcSt11char_traitsIcESaIcEEE@Base 3.0.0
 _ZNK7nuspell2v36Finder19get_dictionary_pathERKNSt7__cxx1112basic_stringIcSt11char_traitsIcESaIcEEE@Base 3.0.0
 _ZNK7nuspell2v36Finder4findERKNSt7__cxx1112basic_stringIcSt11char_traitsIcESaIcEEE@Base 3.0.0
 _ZNK7nuspell2v39ConditionIwE5matchERKNSt7__cxx1112basic_stringIwSt11char_traitsIwESaIwEEEmm@Base 3.0.0
 _ZNK7nuspell2v39Dict_Base10check_wordERNSt7__cxx1112basic_stringIwSt11char_traitsIwESaIwEEENS0_6CasingE@Base 3.0.0
 _ZNK7nuspell2v39Dict_Base10spell_privERNSt7__cxx1112basic_stringIwSt11char_traitsIwESaIwEEE@Base 3.0.0
 _ZNK7nuspell2v39Dict_Base11map_suggestERNSt7__cxx1112basic_stringIwSt11char_traitsIwESaIwEEERNS0_18List_Basic_StringsIwEEm@Base 3.0.0
 _ZNK7nuspell2v39Dict_Base11rep_suggestERNSt7__cxx1112basic_stringIwSt11char_traitsIwESaIwEEERNS0_18List_Basic_StringsIwEE@Base 3.0.0
 _ZNK7nuspell2v39Dict_Base11spell_breakERNSt7__cxx1112basic_stringIwSt11char_traitsIwESaIwEEEm@Base 3.0.0
 _ZNK7nuspell2v39Dict_Base12spell_casingERNSt7__cxx1112basic_stringIwSt11char_traitsIwESaIwEEE@Base 3.0.0
 _ZNK7nuspell2v39Dict_Base12spell_sharpsERNSt7__cxx1112basic_stringIwSt11char_traitsIwESaIwEEEmmm@Base 3.0.0
 _ZNK7nuspell2v39Dict_Base12suggest_privERNSt7__cxx1112basic_stringIwSt11char_traitsIwESaIwEEERNS0_18List_Basic_StringsIwEE@Base 3.0.0
 _ZNK7nuspell2v39Dict_Base13strip_p_s_p_3ILNS0_13Affixing_ModeE0EEENS0_15Affixing_ResultIvvEERKNS0_6PrefixIwEERKNS0_6SuffixIwEERNSt7__cxx1112basic_stringIwSt11char_traitsIwESaIwEEE@Base 3.0.0
 _ZNK7nuspell2v39Dict_Base13strip_s_p_s_3ILNS0_13Affixing_ModeE0EEENS0_15Affixing_ResultIvvEERKNS0_6SuffixIwEERKNS0_6PrefixIwEERNSt7__cxx1112basic_stringIwSt11char_traitsIwESaIwEEE@Base 3.0.0
 _ZNK7nuspell2v39Dict_Base14check_compoundERNSt7__cxx1112basic_stringIwSt11char_traitsIwESaIwEEENS0_6CasingE@Base 3.0.0
 _ZNK7nuspell2v39Dict_Base14check_compoundILNS0_13Affixing_ModeE3EEENS0_18Compounding_ResultERNSt7__cxx1112basic_stringIwSt11char_traitsIwESaIwEEEmmSB_NS0_6CasingE@Base 3.0.0
 _ZNK7nuspell2v39Dict_Base14is_rep_similarERNSt7__cxx1112basic_stringIwSt11char_traitsIwESaIwEEE@Base 3.0.0
 _ZNK7nuspell2v39Dict_Base15affix_NOT_validILNS0_13Affixing_ModeE1EEEDaRKNS0_6SuffixIwEE@Base 3.0.0
 _ZNK7nuspell2v39Dict_Base15affix_NOT_validILNS0_13Affixing_ModeE2EEEDaRKNS0_6PrefixIwEE@Base 3.0.0
 _ZNK7nuspell2v39Dict_Base15count_syllablesERKNSt7__cxx1112basic_stringIwSt11char_traitsIwESaIwEEE@Base 3.0.0
 _ZNK7nuspell2v39Dict_Base16bad_char_suggestERNSt7__cxx1112basic_stringIwSt11char_traitsIwESaIwEEERNS0_18List_Basic_StringsIwEE@Base 3.0.0
 _ZNK7nuspell2v39Dict_Base16keyboard_suggestERNSt7__cxx1112basic_stringIwSt11char_traitsIwESaIwEEERNS0_18List_Basic_StringsIwEE@Base 3.0.0
 _ZNK7nuspell2v39Dict_Base16phonetic_suggestERNSt7__cxx1112basic_stringIwSt11char_traitsIwESaIwEEERNS0_18List_Basic_StringsIwEE@Base 3.0.0
 _ZNK7nuspell2v39Dict_Base17check_simple_wordERNSt7__cxx1112basic_stringIwSt11char_traitsIwESaIwEEE@Base 3.0.0
 _ZNK7nuspell2v39Dict_Base17move_char_suggestERNSt7__cxx1112basic_stringIwSt11char_traitsIwESaIwEEERNS0_18List_Basic_StringsIwEE@Base 3.0.0
 _ZNK7nuspell2v39Dict_Base17strip_pfx_2_sfx_3ILNS0_13Affixing_ModeE0EEENS0_15Affixing_ResultIvvEERKNS0_6PrefixIwEERKNS0_6SuffixIwEERNSt7__cxx1112basic_stringIwSt11char_traitsIwESaIwEEE@Base 3.0.0
 _ZNK7nuspell2v39Dict_Base17strip_prefix_onlyILNS0_13Affixing_ModeE0EEENS0_15Affixing_ResultINS0_6PrefixIwEEvEERNSt7__cxx1112basic_stringIwSt11char_traitsIwESaIwEEE@Base 3.0.0
 _ZNK7nuspell2v39Dict_Base17strip_prefix_onlyILNS0_13Affixing_ModeE1EEENS0_15Affixing_ResultINS0_6PrefixIwEEvEERNSt7__cxx1112basic_stringIwSt11char_traitsIwESaIwEEE@Base 3.0.0
 _ZNK7nuspell2v39Dict_Base17strip_prefix_onlyILNS0_13Affixing_ModeE2EEENS0_15Affixing_ResultINS0_6PrefixIwEEvEERNSt7__cxx1112basic_stringIwSt11char_traitsIwESaIwEEE@Base 3.0.0
 _ZNK7nuspell2v39Dict_Base17strip_prefix_onlyILNS0_13Affixing_ModeE3EEENS0_15Affixing_ResultINS0_6PrefixIwEEvEERNSt7__cxx1112basic_stringIwSt11char_traitsIwESaIwEEE@Base 3.0.0
 _ZNK7nuspell2v39Dict_Base17strip_sfx_2_pfx_3ILNS0_13Affixing_ModeE0EEENS0_15Affixing_ResultIvvEERKNS0_6SuffixIwEERKNS0_6PrefixIwEERNSt7__cxx1112basic_stringIwSt11char_traitsIwESaIwEEE@Base 3.0.0
 _ZNK7nuspell2v39Dict_Base17strip_suffix_onlyILNS0_13Affixing_ModeE0EEENS0_15Affixing_ResultINS0_6SuffixIwEEvEERNSt7__cxx1112basic_stringIwSt11char_traitsIwESaIwEEE@Base 3.0.0
 _ZNK7nuspell2v39Dict_Base17strip_suffix_onlyILNS0_13Affixing_ModeE1EEENS0_15Affixing_ResultINS0_6SuffixIwEEvEERNSt7__cxx1112basic_stringIwSt11char_traitsIwESaIwEEE@Base 3.0.0
 _ZNK7nuspell2v39Dict_Base17strip_suffix_onlyILNS0_13Affixing_ModeE2EEENS0_15Affixing_ResultINS0_6SuffixIwEEvEERNSt7__cxx1112basic_stringIwSt11char_traitsIwESaIwEEE@Base 3.0.0
 _ZNK7nuspell2v39Dict_Base17strip_suffix_onlyILNS0_13Affixing_ModeE3EEENS0_15Affixing_ResultINS0_6SuffixIwEEvEERNSt7__cxx1112basic_stringIwSt11char_traitsIwESaIwEEE@Base 3.0.0
 _ZNK7nuspell2v39Dict_Base17two_words_suggestERNSt7__cxx1112basic_stringIwSt11char_traitsIwESaIwEEERNS0_18List_Basic_StringsIwEE@Base 3.0.0
 _ZNK7nuspell2v39Dict_Base17uppercase_suggestERNSt7__cxx1112basic_stringIwSt11char_traitsIwESaIwEEERNS0_18List_Basic_StringsIwEE@Base 3.0.0
 _ZNK7nuspell2v39Dict_Base18add_sug_if_correctERNSt7__cxx1112basic_stringIwSt11char_traitsIwESaIwEEERNS0_18List_Basic_StringsIwEE@Base 3.0.0
 _ZNK7nuspell2v39Dict_Base18extra_char_suggestERNSt7__cxx1112basic_stringIwSt11char_traitsIwESaIwEEERNS0_18List_Basic_StringsIwEE@Base 3.0.0
 _ZNK7nuspell2v39Dict_Base18spell_casing_titleERNSt7__cxx1112basic_stringIwSt11char_traitsIwESaIwEEE@Base 3.0.0
 _ZNK7nuspell2v39Dict_Base18spell_casing_upperERNSt7__cxx1112basic_stringIwSt11char_traitsIwESaIwEEE@Base 3.0.0
 _ZNK7nuspell2v39Dict_Base18try_rep_suggestionERNSt7__cxx1112basic_stringIwSt11char_traitsIwESaIwEEERNS0_18List_Basic_StringsIwEE@Base 3.0.0
 _ZNK7nuspell2v39Dict_Base20distant_swap_suggestERNSt7__cxx1112basic_stringIwSt11char_traitsIwESaIwEEERNS0_18List_Basic_StringsIwEE@Base 3.0.0
 _ZNK7nuspell2v39Dict_Base20strip_pfx_then_pfx_2ILNS0_13Affixing_ModeE0EEENS0_15Affixing_ResultINS0_6PrefixIwEES6_EERKS6_RNSt7__cxx1112basic_stringIwSt11char_traitsIwESaIwEEE@Base 3.0.0
 _ZNK7nuspell2v39Dict_Base20strip_sfx_then_sfx_2ILNS0_13Affixing_ModeE0EEENS0_15Affixing_ResultINS0_6SuffixIwEES6_EERKS6_RNSt7__cxx1112basic_stringIwSt11char_traitsIwESaIwEEE@Base 3.0.0
 _ZNK7nuspell2v39Dict_Base21adjacent_swap_suggestERNSt7__cxx1112basic_stringIwSt11char_traitsIwESaIwEEERNS0_18List_Basic_StringsIwEE@Base 3.0.0
 _ZNK7nuspell2v39Dict_Base21outer_affix_NOT_validILNS0_13Affixing_ModeE0ENS0_6PrefixIwEEEEDaRKT0_@Base 3.0.0
 _ZNK7nuspell2v39Dict_Base21outer_affix_NOT_validILNS0_13Affixing_ModeE0ENS0_6SuffixIwEEEEDaRKT0_@Base 3.0.0
 _ZNK7nuspell2v39Dict_Base22calc_syllable_modifierILNS0_13Affixing_ModeE2EEEaRKSt4pairINSt7__cxx1112basic_stringIwSt11char_traitsIwESaIwEEENS0_10String_SetIDsEEERKNS0_6SuffixIwEE@Base 3.0.0
 _ZNK7nuspell2v39Dict_Base22check_compound_classicILNS0_13Affixing_ModeE1EEENS0_18Compounding_ResultERNSt7__cxx1112basic_stringIwSt11char_traitsIwESaIwEEEmmmSB_NS0_6CasingE@Base 3.0.0
 _ZNK7nuspell2v39Dict_Base22check_compound_classicILNS0_13Affixing_ModeE3EEENS0_18Compounding_ResultERNSt7__cxx1112basic_stringIwSt11char_traitsIwESaIwEEEmmmSB_NS0_6CasingE@Base 3.0.0
 _ZNK7nuspell2v39Dict_Base22check_word_in_compoundILNS0_13Affixing_ModeE1EEENS0_18Compounding_ResultERNSt7__cxx1112basic_stringIwSt11char_traitsIwESaIwEEE@Base 3.0.0
 _ZNK7nuspell2v39Dict_Base22check_word_in_compoundILNS0_13Affixing_ModeE2EEENS0_18Compounding_ResultERNSt7__cxx1112basic_stringIwSt11char_traitsIwESaIwEEE@Base 3.0.0
 _ZNK7nuspell2v39Dict_Base22check_word_in_compoundILNS0_13Affixing_ModeE3EEENS0_18Compounding_ResultERNSt7__cxx1112basic_stringIwSt11char_traitsIwESaIwEEE@Base 3.0.0
 _ZNK7nuspell2v39Dict_Base22forgotten_char_suggestERNSt7__cxx1112basic_stringIwSt11char_traitsIwESaIwEEERNS0_18List_Basic_StringsIwEE@Base 3.0.0
 _ZNK7nuspell2v39Dict_Base23calc_num_words_modifierERKNS0_6PrefixIwEE@Base 3.0.0
 _ZNK7nuspell2v39Dict_Base24is_valid_inside_compoundILNS0_13Affixing_ModeE1EEEDaRKNS0_10String_SetIDsEE@Base 3.0.0
 _ZNK7nuspell2v39Dict_Base24is_valid_inside_compoundILNS0_13Affixing_ModeE2EEEDaRKNS0_10String_SetIDsEE@Base 3.0.0
 _ZNK7nuspell2v39Dict_Base24is_valid_inside_compoundILNS0_13Affixing_ModeE3EEEDaRKNS0_10String_SetIDsEE@Base 3.0.0
 _ZNK7nuspell2v39Dict_Base24strip_prefix_then_prefixILNS0_13Affixing_ModeE0EEENS0_15Affixing_ResultINS0_6PrefixIwEES6_EERNSt7__cxx1112basic_stringIwSt11char_traitsIwESaIwEEE@Base 3.0.0
 _ZNK7nuspell2v39Dict_Base24strip_suffix_then_suffixILNS0_13Affixing_ModeE0EEENS0_15Affixing_ResultINS0_6SuffixIwEES6_EERNSt7__cxx1112basic_stringIwSt11char_traitsIwESaIwEEE@Base 3.0.0
 _ZNK7nuspell2v39Dict_Base25check_compound_with_rulesERNSt7__cxx1112basic_stringIwSt11char_traitsIwESaIwEEERSt6vectorIPKNS0_10String_SetIDsEESaISD_EEmS8_NS0_6CasingE@Base 3.0.0
 _ZNK7nuspell2v39Dict_Base25doubled_two_chars_suggestERNSt7__cxx1112basic_stringIwSt11char_traitsIwESaIwEEERNS0_18List_Basic_StringsIwEE@Base 3.0.0
 _ZNK7nuspell2v39Dict_Base25strip_pfx_then_sfx_comm_2ILNS0_13Affixing_ModeE0EEENS0_15Affixing_ResultINS0_6SuffixIwEENS0_6PrefixIwEEEERKS8_RNSt7__cxx1112basic_stringIwSt11char_traitsIwESaIwEEE@Base 3.0.0
 _ZNK7nuspell2v39Dict_Base25strip_pfx_then_sfx_comm_2ILNS0_13Affixing_ModeE1EEENS0_15Affixing_ResultINS0_6SuffixIwEENS0_6PrefixIwEEEERKS8_RNSt7__cxx1112basic_stringIwSt11char_traitsIwESaIwEEE@Base 3.0.0
 _ZNK7nuspell2v39Dict_Base25strip_pfx_then_sfx_comm_2ILNS0_13Affixing_ModeE2EEENS0_15Affixing_ResultINS0_6SuffixIwEENS0_6PrefixIwEEEERKS8_RNSt7__cxx1112basic_stringIwSt11char_traitsIwESaIwEEE@Base 3.0.0
 _ZNK7nuspell2v39Dict_Base25strip_pfx_then_sfx_comm_2ILNS0_13Affixing_ModeE3EEENS0_15Affixing_ResultINS0_6SuffixIwEENS0_6PrefixIwEEEERKS8_RNSt7__cxx1112basic_stringIwSt11char_traitsIwESaIwEEE@Base 3.0.0
 _ZNK7nuspell2v39Dict_Base26strip_prefix_suffix_prefixILNS0_13Affixing_ModeE0EEENS0_15Affixing_ResultIvvEERNSt7__cxx1112basic_stringIwSt11char_traitsIwESaIwEEE@Base 3.0.0
 _ZNK7nuspell2v39Dict_Base26strip_suffix_prefix_suffixILNS0_13Affixing_ModeE0EEENS0_15Affixing_ResultIvvEERNSt7__cxx1112basic_stringIwSt11char_traitsIwESaIwEEE@Base 3.0.0
 _ZNK7nuspell2v39Dict_Base28strip_prefix_then_2_suffixesILNS0_13Affixing_ModeE0EEENS0_15Affixing_ResultIvvEERNSt7__cxx1112basic_stringIwSt11char_traitsIwESaIwEEE@Base 3.0.0
 _ZNK7nuspell2v39Dict_Base28strip_suffix_then_2_prefixesILNS0_13Affixing_ModeE0EEENS0_15Affixing_ResultIvvEERNSt7__cxx1112basic_stringIwSt11char_traitsIwESaIwEEE@Base 3.0.0
 _ZNK7nuspell2v39Dict_Base36strip_prefix_then_suffix_commutativeILNS0_13Affixing_ModeE0EEENS0_15Affixing_ResultINS0_6SuffixIwEENS0_6PrefixIwEEEERNSt7__cxx1112basic_stringIwSt11char_traitsIwESaIwEEE@Base 3.0.0
 _ZNK7nuspell2v39Dict_Base36strip_prefix_then_suffix_commutativeILNS0_13Affixing_ModeE1EEENS0_15Affixing_ResultINS0_6SuffixIwEENS0_6PrefixIwEEEERNSt7__cxx1112basic_stringIwSt11char_traitsIwESaIwEEE@Base 3.0.0
 _ZNK7nuspell2v39Dict_Base36strip_prefix_then_suffix_commutativeILNS0_13Affixing_ModeE2EEENS0_15Affixing_ResultINS0_6SuffixIwEENS0_6PrefixIwEEEERNSt7__cxx1112basic_stringIwSt11char_traitsIwESaIwEEE@Base 3.0.0
 _ZNK7nuspell2v39Dict_Base36strip_prefix_then_suffix_commutativeILNS0_13Affixing_ModeE3EEENS0_15Affixing_ResultINS0_6SuffixIwEENS0_6PrefixIwEEEERNSt7__cxx1112basic_stringIwSt11char_traitsIwESaIwEEE@Base 3.0.0
 _ZNK7nuspell2v39Dict_Base40check_compound_with_pattern_replacementsILNS0_13Affixing_ModeE1EEENS0_18Compounding_ResultERNSt7__cxx1112basic_stringIwSt11char_traitsIwESaIwEEEmmmSB_NS0_6CasingE@Base 3.0.0
 _ZNK7nuspell2v39Dict_Base40check_compound_with_pattern_replacementsILNS0_13Affixing_ModeE3EEENS0_18Compounding_ResultERNSt7__cxx1112basic_stringIwSt11char_traitsIwESaIwEEEmmmSB_NS0_6CasingE@Base 3.0.0
 _ZNKSt10_HashtableINSt7__cxx1112basic_stringIcSt11char_traitsIcESaIcEEES5_SaIS5_ENSt8__detail9_IdentityESt8equal_toIS5_ESt4hashIS5_ENS7_18_Mod_range_hashingENS7_20_Default_ranged_hashENS7_20_Prime_rehash_policyENS7_17_Hashtable_traitsILb1ELb1ELb1EEEE5countERKS5_@Base 3.0.0
 _ZNKSt10_HashtableINSt7__cxx1112basic_stringIcSt11char_traitsIcESaIcEEESt4pairIKS5_PDsESaIS9_ENSt8__detail10_Select1stESt8equal_toIS5_ESt4hashIS5_ENSB_18_Mod_range_hashingENSB_20_Default_ranged_hashENSB_20_Prime_rehash_policyENSB_17_Hashtable_traitsILb1ELb0ELb1EEEE19_M_find_before_nodeEmRS7_m@Base 3.0.0
 _ZNKSt10_HashtableINSt7__cxx1112basic_stringIcSt11char_traitsIcESaIcEEESt4pairIKS5_PDsESaIS9_ENSt8__detail10_Select1stESt8equal_toIS5_ESt4hashIS5_ENSB_18_Mod_range_hashingENSB_20_Default_ranged_hashENSB_20_Prime_rehash_policyENSB_17_Hashtable_traitsILb1ELb0ELb1EEEE5countERS7_@Base 3.0.0
 _ZNKSt10_HashtableINSt7__cxx1112basic_stringIcSt11char_traitsIcESaIcEEESt4pairIKS5_PNS1_IwS2_IwESaIwEEEESaISC_ENSt8__detail10_Select1stESt8equal_toIS5_ESt4hashIS5_ENSE_18_Mod_range_hashingENSE_20_Default_ranged_hashENSE_20_Prime_rehash_policyENSE_17_Hashtable_traitsILb1ELb0ELb1EEEE19_M_find_before_nodeEmRS7_m@Base 3.0.0
 _ZNKSt10_HashtableINSt7__cxx1112basic_stringIcSt11char_traitsIcESaIcEEESt4pairIKS5_PSt6vectorIS6_INS1_IwS2_IwESaIwEEESB_ESaISC_EEESaISG_ENSt8__detail10_Select1stESt8equal_toIS5_ESt4hashIS5_ENSI_18_Mod_range_hashingENSI_20_Default_ranged_hashENSI_20_Prime_rehash_policyENSI_17_Hashtable_traitsILb1ELb0ELb1EEEE19_M_find_before_nodeEmRS7_m@Base 3.0.0
 _ZNKSt10_HashtableINSt7__cxx1112basic_stringIcSt11char_traitsIcESaIcEEESt4pairIKS5_PSt6vectorIS6_INS1_IwS2_IwESaIwEEESB_ESaISC_EEESaISG_ENSt8__detail10_Select1stESt8equal_toIS5_ESt4hashIS5_ENSI_18_Mod_range_hashingENSI_20_Default_ranged_hashENSI_20_Prime_rehash_policyENSI_17_Hashtable_traitsILb1ELb0ELb1EEEE5countERS7_@Base 3.0.0
 _ZNKSt10_HashtableINSt7__cxx1112basic_stringIcSt11char_traitsIcESaIcEEESt4pairIKS5_PbESaIS9_ENSt8__detail10_Select1stESt8equal_toIS5_ESt4hashIS5_ENSB_18_Mod_range_hashingENSB_20_Default_ranged_hashENSB_20_Prime_rehash_policyENSB_17_Hashtable_traitsILb1ELb0ELb1EEEE19_M_find_before_nodeEmRS7_m@Base 3.0.0
 _ZNKSt10_HashtableINSt7__cxx1112basic_stringIcSt11char_traitsIcESaIcEEESt4pairIKS5_PtESaIS9_ENSt8__detail10_Select1stESt8equal_toIS5_ESt4hashIS5_ENSB_18_Mod_range_hashingENSB_20_Default_ranged_hashENSB_20_Prime_rehash_policyENSB_17_Hashtable_traitsILb1ELb0ELb1EEEE19_M_find_before_nodeEmRS7_m@Base 3.0.0
 _ZNKSt10_HashtableINSt7__cxx1112basic_stringIcSt11char_traitsIcESaIcEEESt4pairIKS5_S6_IbmEESaIS9_ENSt8__detail10_Select1stESt8equal_toIS5_ESt4hashIS5_ENSB_18_Mod_range_hashingENSB_20_Default_ranged_hashENSB_20_Prime_rehash_policyENSB_17_Hashtable_traitsILb1ELb0ELb1EEEE19_M_find_before_nodeEmRS7_m@Base 3.0.0
 _ZNKSt10_HashtableINSt7__cxx1112basic_stringIcSt11char_traitsIcESaIcEEESt4pairIKS5_mESaIS8_ENSt8__detail10_Select1stESt8equal_toIS5_ESt4hashIS5_ENSA_18_Mod_range_hashingENSA_20_Default_ranged_hashENSA_20_Prime_rehash_policyENSA_17_Hashtable_traitsILb1ELb0ELb1EEEE19_M_find_before_nodeEmRS7_m@Base 3.0.0
 _ZNKSt5ctypeIcE8do_widenEc@Base 3.0.0
 _ZNSt10_HashtableINSt7__cxx1112basic_stringIcSt11char_traitsIcESaIcEEES5_SaIS5_ENSt8__detail9_IdentityESt8equal_toIS5_ESt4hashIS5_ENS7_18_Mod_range_hashingENS7_20_Default_ranged_hashENS7_20_Prime_rehash_policyENS7_17_Hashtable_traitsILb1ELb1ELb1EEEE9_M_insertIRKS5_NS7_10_AllocNodeISaINS7_10_Hash_nodeIS5_Lb1EEEEEEEESt4pairINS7_14_Node_iteratorIS5_Lb1ELb1EEEbEOT_RKT0_St17integral_constantIbLb1EEm@Base 3.0.0
 _ZNSt10_HashtableINSt7__cxx1112basic_stringIcSt11char_traitsIcESaIcEEES5_SaIS5_ENSt8__detail9_IdentityESt8equal_toIS5_ESt4hashIS5_ENS7_18_Mod_range_hashingENS7_20_Default_ranged_hashENS7_20_Prime_rehash_policyENS7_17_Hashtable_traitsILb1ELb1ELb1EEEE9_M_rehashEmRKm@Base 3.0.0
 _ZNSt10_HashtableINSt7__cxx1112basic_stringIcSt11char_traitsIcESaIcEEES5_SaIS5_ENSt8__detail9_IdentityESt8equal_toIS5_ESt4hashIS5_ENS7_18_Mod_range_hashingENS7_20_Default_ranged_hashENS7_20_Prime_rehash_policyENS7_17_Hashtable_traitsILb1ELb1ELb1EEEED1Ev@Base 3.0.0
 _ZNSt10_HashtableINSt7__cxx1112basic_stringIcSt11char_traitsIcESaIcEEES5_SaIS5_ENSt8__detail9_IdentityESt8equal_toIS5_ESt4hashIS5_ENS7_18_Mod_range_hashingENS7_20_Default_ranged_hashENS7_20_Prime_rehash_policyENS7_17_Hashtable_traitsILb1ELb1ELb1EEEED2Ev@Base 3.0.0
 _ZNSt10_HashtableINSt7__cxx1112basic_stringIcSt11char_traitsIcESaIcEEESt4pairIKS5_PDsESaIS9_ENSt8__detail10_Select1stESt8equal_toIS5_ESt4hashIS5_ENSB_18_Mod_range_hashingENSB_20_Default_ranged_hashENSB_20_Prime_rehash_policyENSB_17_Hashtable_traitsILb1ELb0ELb1EEEE21_M_insert_unique_nodeEmmPNSB_10_Hash_nodeIS9_Lb1EEEm@Base 3.0.0
 _ZNSt10_HashtableINSt7__cxx1112basic_stringIcSt11char_traitsIcESaIcEEESt4pairIKS5_PDsESaIS9_ENSt8__detail10_Select1stESt8equal_toIS5_ESt4hashIS5_ENSB_18_Mod_range_hashingENSB_20_Default_ranged_hashENSB_20_Prime_rehash_policyENSB_17_Hashtable_traitsILb1ELb0ELb1EEEE9_M_rehashEmRKm@Base 3.0.0
 _ZNSt10_HashtableINSt7__cxx1112basic_stringIcSt11char_traitsIcESaIcEEESt4pairIKS5_PDsESaIS9_ENSt8__detail10_Select1stESt8equal_toIS5_ESt4hashIS5_ENSB_18_Mod_range_hashingENSB_20_Default_ranged_hashENSB_20_Prime_rehash_policyENSB_17_Hashtable_traitsILb1ELb0ELb1EEEED1Ev@Base 3.0.0
 _ZNSt10_HashtableINSt7__cxx1112basic_stringIcSt11char_traitsIcESaIcEEESt4pairIKS5_PDsESaIS9_ENSt8__detail10_Select1stESt8equal_toIS5_ESt4hashIS5_ENSB_18_Mod_range_hashingENSB_20_Default_ranged_hashENSB_20_Prime_rehash_policyENSB_17_Hashtable_traitsILb1ELb0ELb1EEEED2Ev@Base 3.0.0
 _ZNSt10_HashtableINSt7__cxx1112basic_stringIcSt11char_traitsIcESaIcEEESt4pairIKS5_PNS1_IwS2_IwESaIwEEEESaISC_ENSt8__detail10_Select1stESt8equal_toIS5_ESt4hashIS5_ENSE_18_Mod_range_hashingENSE_20_Default_ranged_hashENSE_20_Prime_rehash_policyENSE_17_Hashtable_traitsILb1ELb0ELb1EEEE21_M_insert_unique_nodeEmmPNSE_10_Hash_nodeISC_Lb1EEEm@Base 3.0.0
 _ZNSt10_HashtableINSt7__cxx1112basic_stringIcSt11char_traitsIcESaIcEEESt4pairIKS5_PNS1_IwS2_IwESaIwEEEESaISC_ENSt8__detail10_Select1stESt8equal_toIS5_ESt4hashIS5_ENSE_18_Mod_range_hashingENSE_20_Default_ranged_hashENSE_20_Prime_rehash_policyENSE_17_Hashtable_traitsILb1ELb0ELb1EEEE9_M_rehashEmRKm@Base 3.0.0
 _ZNSt10_HashtableINSt7__cxx1112basic_stringIcSt11char_traitsIcESaIcEEESt4pairIKS5_PNS1_IwS2_IwESaIwEEEESaISC_ENSt8__detail10_Select1stESt8equal_toIS5_ESt4hashIS5_ENSE_18_Mod_range_hashingENSE_20_Default_ranged_hashENSE_20_Prime_rehash_policyENSE_17_Hashtable_traitsILb1ELb0ELb1EEEED1Ev@Base 3.0.0
 _ZNSt10_HashtableINSt7__cxx1112basic_stringIcSt11char_traitsIcESaIcEEESt4pairIKS5_PNS1_IwS2_IwESaIwEEEESaISC_ENSt8__detail10_Select1stESt8equal_toIS5_ESt4hashIS5_ENSE_18_Mod_range_hashingENSE_20_Default_ranged_hashENSE_20_Prime_rehash_policyENSE_17_Hashtable_traitsILb1ELb0ELb1EEEED2Ev@Base 3.0.0
 _ZNSt10_HashtableINSt7__cxx1112basic_stringIcSt11char_traitsIcESaIcEEESt4pairIKS5_PSt6vectorIS6_INS1_IwS2_IwESaIwEEESB_ESaISC_EEESaISG_ENSt8__detail10_Select1stESt8equal_toIS5_ESt4hashIS5_ENSI_18_Mod_range_hashingENSI_20_Default_ranged_hashENSI_20_Prime_rehash_policyENSI_17_Hashtable_traitsILb1ELb0ELb1EEEE21_M_insert_unique_nodeEmmPNSI_10_Hash_nodeISG_Lb1EEEm@Base 3.0.0
 _ZNSt10_HashtableINSt7__cxx1112basic_stringIcSt11char_traitsIcESaIcEEESt4pairIKS5_PSt6vectorIS6_INS1_IwS2_IwESaIwEEESB_ESaISC_EEESaISG_ENSt8__detail10_Select1stESt8equal_toIS5_ESt4hashIS5_ENSI_18_Mod_range_hashingENSI_20_Default_ranged_hashENSI_20_Prime_rehash_policyENSI_17_Hashtable_traitsILb1ELb0ELb1EEEE9_M_rehashEmRKm@Base 3.0.0
 _ZNSt10_HashtableINSt7__cxx1112basic_stringIcSt11char_traitsIcESaIcEEESt4pairIKS5_PSt6vectorIS6_INS1_IwS2_IwESaIwEEESB_ESaISC_EEESaISG_ENSt8__detail10_Select1stESt8equal_toIS5_ESt4hashIS5_ENSI_18_Mod_range_hashingENSI_20_Default_ranged_hashENSI_20_Prime_rehash_policyENSI_17_Hashtable_traitsILb1ELb0ELb1EEEED1Ev@Base 3.0.0
 _ZNSt10_HashtableINSt7__cxx1112basic_stringIcSt11char_traitsIcESaIcEEESt4pairIKS5_PSt6vectorIS6_INS1_IwS2_IwESaIwEEESB_ESaISC_EEESaISG_ENSt8__detail10_Select1stESt8equal_toIS5_ESt4hashIS5_ENSI_18_Mod_range_hashingENSI_20_Default_ranged_hashENSI_20_Prime_rehash_policyENSI_17_Hashtable_traitsILb1ELb0ELb1EEEED2Ev@Base 3.0.0
 _ZNSt10_HashtableINSt7__cxx1112basic_stringIcSt11char_traitsIcESaIcEEESt4pairIKS5_PbESaIS9_ENSt8__detail10_Select1stESt8equal_toIS5_ESt4hashIS5_ENSB_18_Mod_range_hashingENSB_20_Default_ranged_hashENSB_20_Prime_rehash_policyENSB_17_Hashtable_traitsILb1ELb0ELb1EEEE21_M_insert_unique_nodeEmmPNSB_10_Hash_nodeIS9_Lb1EEEm@Base 3.0.0
 _ZNSt10_HashtableINSt7__cxx1112basic_stringIcSt11char_traitsIcESaIcEEESt4pairIKS5_PbESaIS9_ENSt8__detail10_Select1stESt8equal_toIS5_ESt4hashIS5_ENSB_18_Mod_range_hashingENSB_20_Default_ranged_hashENSB_20_Prime_rehash_policyENSB_17_Hashtable_traitsILb1ELb0ELb1EEEE9_M_rehashEmRKm@Base 3.0.0
 _ZNSt10_HashtableINSt7__cxx1112basic_stringIcSt11char_traitsIcESaIcEEESt4pairIKS5_PbESaIS9_ENSt8__detail10_Select1stESt8equal_toIS5_ESt4hashIS5_ENSB_18_Mod_range_hashingENSB_20_Default_ranged_hashENSB_20_Prime_rehash_policyENSB_17_Hashtable_traitsILb1ELb0ELb1EEEED1Ev@Base 3.0.0
 _ZNSt10_HashtableINSt7__cxx1112basic_stringIcSt11char_traitsIcESaIcEEESt4pairIKS5_PbESaIS9_ENSt8__detail10_Select1stESt8equal_toIS5_ESt4hashIS5_ENSB_18_Mod_range_hashingENSB_20_Default_ranged_hashENSB_20_Prime_rehash_policyENSB_17_Hashtable_traitsILb1ELb0ELb1EEEED2Ev@Base 3.0.0
 _ZNSt10_HashtableINSt7__cxx1112basic_stringIcSt11char_traitsIcESaIcEEESt4pairIKS5_PtESaIS9_ENSt8__detail10_Select1stESt8equal_toIS5_ESt4hashIS5_ENSB_18_Mod_range_hashingENSB_20_Default_ranged_hashENSB_20_Prime_rehash_policyENSB_17_Hashtable_traitsILb1ELb0ELb1EEEE21_M_insert_unique_nodeEmmPNSB_10_Hash_nodeIS9_Lb1EEEm@Base 3.0.0
 _ZNSt10_HashtableINSt7__cxx1112basic_stringIcSt11char_traitsIcESaIcEEESt4pairIKS5_PtESaIS9_ENSt8__detail10_Select1stESt8equal_toIS5_ESt4hashIS5_ENSB_18_Mod_range_hashingENSB_20_Default_ranged_hashENSB_20_Prime_rehash_policyENSB_17_Hashtable_traitsILb1ELb0ELb1EEEE9_M_rehashEmRKm@Base 3.0.0
 _ZNSt10_HashtableINSt7__cxx1112basic_stringIcSt11char_traitsIcESaIcEEESt4pairIKS5_PtESaIS9_ENSt8__detail10_Select1stESt8equal_toIS5_ESt4hashIS5_ENSB_18_Mod_range_hashingENSB_20_Default_ranged_hashENSB_20_Prime_rehash_policyENSB_17_Hashtable_traitsILb1ELb0ELb1EEEED1Ev@Base 3.0.0
 _ZNSt10_HashtableINSt7__cxx1112basic_stringIcSt11char_traitsIcESaIcEEESt4pairIKS5_PtESaIS9_ENSt8__detail10_Select1stESt8equal_toIS5_ESt4hashIS5_ENSB_18_Mod_range_hashingENSB_20_Default_ranged_hashENSB_20_Prime_rehash_policyENSB_17_Hashtable_traitsILb1ELb0ELb1EEEED2Ev@Base 3.0.0
 _ZNSt10_HashtableINSt7__cxx1112basic_stringIcSt11char_traitsIcESaIcEEESt4pairIKS5_S6_IbmEESaIS9_ENSt8__detail10_Select1stESt8equal_toIS5_ESt4hashIS5_ENSB_18_Mod_range_hashingENSB_20_Default_ranged_hashENSB_20_Prime_rehash_policyENSB_17_Hashtable_traitsILb1ELb0ELb1EEEE4findERS7_@Base 3.0.0
 _ZNSt10_HashtableINSt7__cxx1112basic_stringIcSt11char_traitsIcESaIcEEESt4pairIKS5_S6_IbmEESaIS9_ENSt8__detail10_Select1stESt8equal_toIS5_ESt4hashIS5_ENSB_18_Mod_range_hashingENSB_20_Default_ranged_hashENSB_20_Prime_rehash_policyENSB_17_Hashtable_traitsILb1ELb0ELb1EEEE9_M_rehashEmRKm@Base 3.0.0
 _ZNSt10_HashtableINSt7__cxx1112basic_stringIcSt11char_traitsIcESaIcEEESt4pairIKS5_S6_IbmEESaIS9_ENSt8__detail10_Select1stESt8equal_toIS5_ESt4hashIS5_ENSB_18_Mod_range_hashingENSB_20_Default_ranged_hashENSB_20_Prime_rehash_policyENSB_17_Hashtable_traitsILb1ELb0ELb1EEEED1Ev@Base 3.0.0
 _ZNSt10_HashtableINSt7__cxx1112basic_stringIcSt11char_traitsIcESaIcEEESt4pairIKS5_S6_IbmEESaIS9_ENSt8__detail10_Select1stESt8equal_toIS5_ESt4hashIS5_ENSB_18_Mod_range_hashingENSB_20_Default_ranged_hashENSB_20_Prime_rehash_policyENSB_17_Hashtable_traitsILb1ELb0ELb1EEEED2Ev@Base 3.0.0
 _ZNSt10_HashtableINSt7__cxx1112basic_stringIcSt11char_traitsIcESaIcEEESt4pairIKS5_mESaIS8_ENSt8__detail10_Select1stESt8equal_toIS5_ESt4hashIS5_ENSA_18_Mod_range_hashingENSA_20_Default_ranged_hashENSA_20_Prime_rehash_policyENSA_17_Hashtable_traitsILb1ELb0ELb1EEEE4findERS7_@Base 3.0.0
 _ZNSt10_HashtableINSt7__cxx1112basic_stringIcSt11char_traitsIcESaIcEEESt4pairIKS5_mESaIS8_ENSt8__detail10_Select1stESt8equal_toIS5_ESt4hashIS5_ENSA_18_Mod_range_hashingENSA_20_Default_ranged_hashENSA_20_Prime_rehash_policyENSA_17_Hashtable_traitsILb1ELb0ELb1EEEE9_M_rehashEmRKm@Base 3.0.0
 _ZNSt10_HashtableINSt7__cxx1112basic_stringIcSt11char_traitsIcESaIcEEESt4pairIKS5_mESaIS8_ENSt8__detail10_Select1stESt8equal_toIS5_ESt4hashIS5_ENSA_18_Mod_range_hashingENSA_20_Default_ranged_hashENSA_20_Prime_rehash_policyENSA_17_Hashtable_traitsILb1ELb0ELb1EEEED1Ev@Base 3.0.0
 _ZNSt10_HashtableINSt7__cxx1112basic_stringIcSt11char_traitsIcESaIcEEESt4pairIKS5_mESaIS8_ENSt8__detail10_Select1stESt8equal_toIS5_ESt4hashIS5_ENSA_18_Mod_range_hashingENSA_20_Default_ranged_hashENSA_20_Prime_rehash_policyENSA_17_Hashtable_traitsILb1ELb0ELb1EEEED2Ev@Base 3.0.0
 _ZNSt11_Deque_baseISt4pairIN9__gnu_cxx17__normal_iteratorIPKPKN7nuspell2v310String_SetIDsEESt6vectorIS8_SaIS8_EEEENS2_IPKDsNSt7__cxx1112basic_stringIDsSt11char_traitsIDsESaIDsEEEEEESaISO_EED1Ev@Base 3.0.0
 _ZNSt11_Deque_baseISt4pairIN9__gnu_cxx17__normal_iteratorIPKPKN7nuspell2v310String_SetIDsEESt6vectorIS8_SaIS8_EEEENS2_IPKDsNSt7__cxx1112basic_stringIDsSt11char_traitsIDsESaIDsEEEEEESaISO_EED2Ev@Base 3.0.0
 _ZNSt11__copy_moveILb1ELb0ESt26random_access_iterator_tagE8__copy_mIPSt4pairINSt7__cxx1112basic_stringIwSt11char_traitsIwESaIwEEES9_ESB_EET0_T_SD_SC_@Base 3.0.0
 _ZNSt11char_traitsIDsE2eqERKDsS2_@Base 3.0.0
 _ZNSt11char_traitsIDsE2ltERKDsS2_@Base 3.0.0
 _ZNSt11char_traitsIwE2ltERKwS2_@Base 3.0.0
 _ZNSt17_Temporary_bufferIN9__gnu_cxx17__normal_iteratorIPSt4pairINSt7__cxx1112basic_stringIwSt11char_traitsIwESaIwEEES8_ESt6vectorIS9_SaIS9_EEEES9_EC1ESE_l@Base 3.0.0
 _ZNSt17_Temporary_bufferIN9__gnu_cxx17__normal_iteratorIPSt4pairINSt7__cxx1112basic_stringIwSt11char_traitsIwESaIwEEES8_ESt6vectorIS9_SaIS9_EEEES9_EC2ESE_l@Base 3.0.0
 _ZNSt20__copy_move_backwardILb1ELb0ESt26random_access_iterator_tagE13__copy_move_bIPSt4pairINSt7__cxx1112basic_stringIwSt11char_traitsIwESaIwEEES9_ESB_EET0_T_SD_SC_@Base 3.0.0
 _ZNSt3_V28__rotateIN9__gnu_cxx17__normal_iteratorIPSt4pairINSt7__cxx1112basic_stringIcSt11char_traitsIcESaIcEEES9_ESt6vectorISA_SaISA_EEEEEET_SG_SG_SG_St26random_access_iterator_tag@Base 3.0.0
 _ZNSt3_V28__rotateIN9__gnu_cxx17__normal_iteratorIPSt4pairINSt7__cxx1112basic_stringIwSt11char_traitsIwESaIwEEES9_ESt6vectorISA_SaISA_EEEEEET_SG_SG_SG_St26random_access_iterator_tag@Base 3.0.0
 _ZNSt4pairINSt7__cxx1112basic_stringIcSt11char_traitsIcESaIcEEES5_ED1Ev@Base 3.0.0
 _ZNSt4pairINSt7__cxx1112basic_stringIcSt11char_traitsIcESaIcEEES5_ED2Ev@Base 3.0.0
 _ZNSt4pairINSt7__cxx1112basic_stringIwSt11char_traitsIwESaIwEEEN7nuspell2v310String_SetIDsEEEC1ERKSA_@Base 3.0.0
 _ZNSt4pairINSt7__cxx1112basic_stringIwSt11char_traitsIwESaIwEEEN7nuspell2v310String_SetIDsEEEC2ERKSA_@Base 3.0.0
 _ZNSt4pairINSt7__cxx1112basic_stringIwSt11char_traitsIwESaIwEEEN7nuspell2v310String_SetIDsEEED1Ev@Base 3.0.0
 _ZNSt4pairINSt7__cxx1112basic_stringIwSt11char_traitsIwESaIwEEEN7nuspell2v310String_SetIDsEEED2Ev@Base 3.0.0
 _ZNSt5dequeISt4pairIN9__gnu_cxx17__normal_iteratorIPKPKN7nuspell2v310String_SetIDsEESt6vectorIS8_SaIS8_EEEENS2_IPKDsNSt7__cxx1112basic_stringIDsSt11char_traitsIDsESaIDsEEEEEESaISO_EE12emplace_backIJRSE_SN_EEERSO_DpOT_@Base 3.0.0
 _ZNSt5dequeISt4pairIN9__gnu_cxx17__normal_iteratorIPKPKN7nuspell2v310String_SetIDsEESt6vectorIS8_SaIS8_EEEENS2_IPKDsNSt7__cxx1112basic_stringIDsSt11char_traitsIDsESaIDsEEEEEESaISO_EE12emplace_backIJSE_SN_EEERSO_DpOT_@Base 3.0.0
 _ZNSt5dequeISt4pairIN9__gnu_cxx17__normal_iteratorIPKPKN7nuspell2v310String_SetIDsEESt6vectorIS8_SaIS8_EEEENS2_IPKDsNSt7__cxx1112basic_stringIDsSt11char_traitsIDsESaIDsEEEEEESaISO_EE17_M_reallocate_mapEmb@Base 3.0.0
 _ZNSt6vectorIN5boost9container12small_vectorISt4pairINSt7__cxx1112basic_stringIwSt11char_traitsIwESaIwEEEN7nuspell2v310String_SetIDsEEELm1ENS1_13new_allocatorISE_EEEESaISH_EE17_M_default_appendEm@Base 3.0.0
 _ZNSt6vectorIN5boost9container12small_vectorISt4pairINSt7__cxx1112basic_stringIwSt11char_traitsIwESaIwEEEN7nuspell2v310String_SetIDsEEELm1ENS1_13new_allocatorISE_EEEESaISH_EED1Ev@Base 3.0.0
 _ZNSt6vectorIN5boost9container12small_vectorISt4pairINSt7__cxx1112basic_stringIwSt11char_traitsIwESaIwEEEN7nuspell2v310String_SetIDsEEELm1ENS1_13new_allocatorISE_EEEESaISH_EED2Ev@Base 3.0.0
 _ZNSt6vectorIN7nuspell2v310String_SetIDsEESaIS3_EE17_M_realloc_insertIJEEEvN9__gnu_cxx17__normal_iteratorIPS3_S5_EEDpOT_@Base 3.0.0
 _ZNSt6vectorIN7nuspell2v316Compound_PatternIwEESaIS3_EE17_M_realloc_insertIJEEEvN9__gnu_cxx17__normal_iteratorIPS3_S5_EEDpOT_@Base 3.0.0
 _ZNSt6vectorIN7nuspell2v316Similarity_GroupIwEESaIS3_EE13_M_assign_auxIN9__gnu_cxx17__normal_iteratorIPNSt7__cxx1112basic_stringIwSt11char_traitsIwESaIwEEES_ISE_SaISE_EEEEEEvT_SJ_St20forward_iterator_tag@Base 3.0.0
 _ZNSt6vectorIN7nuspell2v36PrefixIwEESaIS3_EE17_M_realloc_insertIJEEEvN9__gnu_cxx17__normal_iteratorIPS3_S5_EEDpOT_@Base 3.0.0
 _ZNSt6vectorIN7nuspell2v36PrefixIwEESaIS3_EED1Ev@Base 3.0.0
 _ZNSt6vectorIN7nuspell2v36PrefixIwEESaIS3_EED2Ev@Base 3.0.0
 _ZNSt6vectorIN7nuspell2v36SuffixIwEESaIS3_EE17_M_realloc_insertIJEEEvN9__gnu_cxx17__normal_iteratorIPS3_S5_EEDpOT_@Base 3.0.0
 _ZNSt6vectorIN7nuspell2v39ConditionIwE4SpanESaIS4_EE12emplace_backIJRmmNS3_9Span_TypeEEEERS4_DpOT_@Base 3.0.0
 _ZNSt6vectorINSt7__cxx1112basic_stringIDsSt11char_traitsIDsESaIDsEEESaIS5_EE17_M_realloc_insertIJEEEvN9__gnu_cxx17__normal_iteratorIPS5_S7_EEDpOT_@Base 3.0.0
 _ZNSt6vectorINSt7__cxx1112basic_stringIcSt11char_traitsIcESaIcEEESaIS5_EE12emplace_backIJS5_EEERS5_DpOT_@Base 3.0.0
 _ZNSt6vectorINSt7__cxx1112basic_stringIcSt11char_traitsIcESaIcEEESaIS5_EE17_M_default_appendEm@Base 3.0.0
 _ZNSt6vectorINSt7__cxx1112basic_stringIcSt11char_traitsIcESaIcEEESaIS5_EE17_M_realloc_insertIJEEEvN9__gnu_cxx17__normal_iteratorIPS5_S7_EEDpOT_@Base 3.0.0
 _ZNSt6vectorINSt7__cxx1112basic_stringIcSt11char_traitsIcESaIcEEESaIS5_EE17_M_realloc_insertIJRKS5_EEEvN9__gnu_cxx17__normal_iteratorIPS5_S7_EEDpOT_@Base 3.0.0
 _ZNSt6vectorINSt7__cxx1112basic_stringIcSt11char_traitsIcESaIcEEESaIS5_EE17_M_realloc_insertIJS5_EEEvN9__gnu_cxx17__normal_iteratorIPS5_S7_EEDpOT_@Base 3.0.0
 _ZNSt6vectorINSt7__cxx1112basic_stringIwSt11char_traitsIwESaIwEEESaIS5_EE13_M_assign_auxIPKS5_EEvT_SB_St20forward_iterator_tag@Base 3.0.0
 _ZNSt6vectorINSt7__cxx1112basic_stringIwSt11char_traitsIwESaIwEEESaIS5_EE17_M_realloc_insertIJEEEvN9__gnu_cxx17__normal_iteratorIPS5_S7_EEDpOT_@Base 3.0.0
 _ZNSt6vectorINSt7__cxx1112basic_stringIwSt11char_traitsIwESaIwEEESaIS5_EE17_M_realloc_insertIJRKS5_EEEvN9__gnu_cxx17__normal_iteratorIPS5_S7_EEDpOT_@Base 3.0.0
 _ZNSt6vectorINSt7__cxx1112basic_stringIwSt11char_traitsIwESaIwEEESaIS5_EED1Ev@Base 3.0.0
 _ZNSt6vectorINSt7__cxx1112basic_stringIwSt11char_traitsIwESaIwEEESaIS5_EED2Ev@Base 3.0.0
 _ZNSt6vectorIPKN7nuspell2v310String_SetIDsEESaIS5_EE12emplace_backIJS5_EEERS5_DpOT_@Base 3.0.0
 _ZNSt6vectorIPKN7nuspell2v310String_SetIDsEESaIS5_EE17_M_realloc_insertIJS5_EEEvN9__gnu_cxx17__normal_iteratorIPS5_S7_EEDpOT_@Base 3.0.0
 _ZNSt6vectorISt4pairINSt7__cxx1112basic_stringIcSt11char_traitsIcESaIcEEES6_ESaIS7_EE12emplace_backIJS7_EEERS7_DpOT_@Base 3.0.0
 _ZNSt6vectorISt4pairINSt7__cxx1112basic_stringIcSt11char_traitsIcESaIcEEES6_ESaIS7_EE17_M_realloc_insertIJS7_EEEvN9__gnu_cxx17__normal_iteratorIPS7_S9_EEDpOT_@Base 3.0.0
 _ZNSt6vectorISt4pairINSt7__cxx1112basic_stringIwSt11char_traitsIwESaIwEEES6_ESaIS7_EE17_M_realloc_insertIJEEEvN9__gnu_cxx17__normal_iteratorIPS7_S9_EEDpOT_@Base 3.0.0
 _ZNSt6vectorISt4pairINSt7__cxx1112basic_stringIwSt11char_traitsIwESaIwEEES6_ESaIS7_EE8_M_eraseEN9__gnu_cxx17__normal_iteratorIPS7_S9_EESD_@Base 3.0.0
 _ZNSt6vectorISt4pairINSt7__cxx1112basic_stringIwSt11char_traitsIwESaIwEEES6_ESaIS7_EED1Ev@Base 3.0.0
 _ZNSt6vectorISt4pairINSt7__cxx1112basic_stringIwSt11char_traitsIwESaIwEEES6_ESaIS7_EED2Ev@Base 3.0.0
 _ZNSt6vectorImSaImEE12emplace_backIJmEEERmDpOT_@Base 3.0.0
 _ZNSt6vectorImSaImEE17_M_realloc_insertIJmEEEvN9__gnu_cxx17__normal_iteratorIPmS1_EEDpOT_@Base 3.0.0
 _ZNSt7__cxx1112basic_stringIDsSt11char_traitsIDsESaIDsEE12_M_constructIPDsEEvT_S7_St20forward_iterator_tag@Base 3.0.0
 _ZNSt7__cxx1112basic_stringIDsSt11char_traitsIDsESaIDsEE6resizeEmDs@Base 3.0.0
 _ZNSt7__cxx1112basic_stringIDsSt11char_traitsIDsESaIDsEE8_M_eraseEmm@Base 3.0.0
 _ZNSt7__cxx1112basic_stringIDsSt11char_traitsIDsESaIDsEE9_M_appendEPKDsm@Base 3.0.0
 _ZNSt7__cxx1112basic_stringIDsSt11char_traitsIDsESaIDsEE9_M_assignERKS4_@Base 3.0.0
 _ZNSt7__cxx1112basic_stringIDsSt11char_traitsIDsESaIDsEE9_M_createERmm@Base 3.0.0
 _ZNSt7__cxx1112basic_stringIDsSt11char_traitsIDsESaIDsEE9_M_mutateEmmPKDsm@Base 3.0.0
 _ZNSt7__cxx1112basic_stringIDsSt11char_traitsIDsESaIDsEE9push_backEDs@Base 3.0.0
 _ZNSt7__cxx1112basic_stringIcSt11char_traitsIcESaIcEE12_M_constructIPKcEEvT_S8_St20forward_iterator_tag@Base 3.0.0
 _ZNSt7__cxx1112basic_stringIcSt11char_traitsIcESaIcEE12_M_constructIPcEEvT_S7_St20forward_iterator_tag@Base 3.0.0
 _ZNSt7__cxx1112basic_stringIwSt11char_traitsIwESaIwEE12_M_constructIPKwEEvT_S8_St20forward_iterator_tag@Base 3.0.0
 _ZNSt7__cxx1112basic_stringIwSt11char_traitsIwESaIwEE12_M_constructIPwEEvT_S7_St20forward_iterator_tag@Base 3.0.0
 _ZNSt8__detail9_Map_baseINSt7__cxx1112basic_stringIcSt11char_traitsIcESaIcEEESt4pairIKS6_PDsESaISA_ENS_10_Select1stESt8equal_toIS6_ESt4hashIS6_ENS_18_Mod_range_hashingENS_20_Default_ranged_hashENS_20_Prime_rehash_policyENS_17_Hashtable_traitsILb1ELb0ELb1EEELb1EEixERS8_@Base 3.0.0
 _ZNSt8__detail9_Map_baseINSt7__cxx1112basic_stringIcSt11char_traitsIcESaIcEEESt4pairIKS6_PNS2_IwS3_IwESaIwEEEESaISD_ENS_10_Select1stESt8equal_toIS6_ESt4hashIS6_ENS_18_Mod_range_hashingENS_20_Default_ranged_hashENS_20_Prime_rehash_policyENS_17_Hashtable_traitsILb1ELb0ELb1EEELb1EEixERS8_@Base 3.0.0
 _ZNSt8__detail9_Map_baseINSt7__cxx1112basic_stringIcSt11char_traitsIcESaIcEEESt4pairIKS6_PSt6vectorIS7_INS2_IwS3_IwESaIwEEESC_ESaISD_EEESaISH_ENS_10_Select1stESt8equal_toIS6_ESt4hashIS6_ENS_18_Mod_range_hashingENS_20_Default_ranged_hashENS_20_Prime_rehash_policyENS_17_Hashtable_traitsILb1ELb0ELb1EEELb1EEixERS8_@Base 3.0.0
 _ZNSt8__detail9_Map_baseINSt7__cxx1112basic_stringIcSt11char_traitsIcESaIcEEESt4pairIKS6_PbESaISA_ENS_10_Select1stESt8equal_toIS6_ESt4hashIS6_ENS_18_Mod_range_hashingENS_20_Default_ranged_hashENS_20_Prime_rehash_policyENS_17_Hashtable_traitsILb1ELb0ELb1EEELb1EEixERS8_@Base 3.0.0
 _ZNSt8__detail9_Map_baseINSt7__cxx1112basic_stringIcSt11char_traitsIcESaIcEEESt4pairIKS6_PtESaISA_ENS_10_Select1stESt8equal_toIS6_ESt4hashIS6_ENS_18_Mod_range_hashingENS_20_Default_ranged_hashENS_20_Prime_rehash_policyENS_17_Hashtable_traitsILb1ELb0ELb1EEELb1EEixERS8_@Base 3.0.0
 _ZNSt8__detail9_Map_baseINSt7__cxx1112basic_stringIcSt11char_traitsIcESaIcEEESt4pairIKS6_S7_IbmEESaISA_ENS_10_Select1stESt8equal_toIS6_ESt4hashIS6_ENS_18_Mod_range_hashingENS_20_Default_ranged_hashENS_20_Prime_rehash_policyENS_17_Hashtable_traitsILb1ELb0ELb1EEELb1EEixERS8_@Base 3.0.0
 _ZNSt8__detail9_Map_baseINSt7__cxx1112basic_stringIcSt11char_traitsIcESaIcEEESt4pairIKS6_mESaIS9_ENS_10_Select1stESt8equal_toIS6_ESt4hashIS6_ENS_18_Mod_range_hashingENS_20_Default_ranged_hashENS_20_Prime_rehash_policyENS_17_Hashtable_traitsILb1ELb0ELb1EEELb1EEixERS8_@Base 3.0.0
 _ZSt11__make_heapIN9__gnu_cxx17__normal_iteratorIPN7nuspell2v36PrefixIwEESt6vectorIS5_SaIS5_EEEENS0_5__ops15_Iter_comp_iterIZNS3_15Prefix_MultisetIS5_NS3_33Extractor_Of_Appending_From_AffixIS5_EENS3_8identityEE4sortEvEUlRS5_SI_E_EEEvT_SL_RT0_@Base 3.0.0
 _ZSt11__make_heapIN9__gnu_cxx17__normal_iteratorIPN7nuspell2v36SuffixIwEESt6vectorIS5_SaIS5_EEEENS0_5__ops15_Iter_comp_iterIZNS3_15Prefix_MultisetIS5_NS3_33Extractor_Of_Appending_From_AffixIS5_EENS3_15String_ReverserIwEEE4sortEvEUlRS5_SJ_E_EEEvT_SM_RT0_@Base 3.0.0
 _ZSt11__partitionIN9__gnu_cxx17__normal_iteratorIPSt4pairINSt7__cxx1112basic_stringIwSt11char_traitsIwESaIwEEES8_ESt6vectorIS9_SaIS9_EEEEZN7nuspell2v317Replacement_TableIwE13order_entriesEvEUlRT_E1_ESJ_SJ_SJ_T0_St26bidirectional_iterator_tag@Base 3.0.0
 _ZSt12__move_mergeIN9__gnu_cxx17__normal_iteratorIPSt4pairINSt7__cxx1112basic_stringIwSt11char_traitsIwESaIwEEES8_ESt6vectorIS9_SaIS9_EEEESA_NS0_5__ops15_Iter_comp_iterIZN7nuspell2v314Phonetic_TableIwE5orderEvEUlRT_RT0_E_EEESN_SL_SL_SL_SL_SN_T1_@Base 3.0.0
 _ZSt12__move_mergeIPSt4pairINSt7__cxx1112basic_stringIwSt11char_traitsIwESaIwEEES6_EN9__gnu_cxx17__normal_iteratorIS8_St6vectorIS7_SaIS7_EEEENS9_5__ops15_Iter_comp_iterIZN7nuspell2v314Phonetic_TableIwE5orderEvEUlRT_RT0_E_EEESN_SL_SL_SL_SL_SN_T1_@Base 3.0.0
 _ZSt13__adjust_heapIN9__gnu_cxx17__normal_iteratorIPDsNSt7__cxx1112basic_stringIDsSt11char_traitsIDsESaIDsEEEEElDsNS0_5__ops15_Iter_comp_iterIPDoFbRKDsSD_EEEEvT_T0_SI_T1_T2_@Base 3.0.0
 _ZSt13__adjust_heapIN9__gnu_cxx17__normal_iteratorIPN7nuspell2v36PrefixIwEESt6vectorIS5_SaIS5_EEEElS5_NS0_5__ops15_Iter_comp_iterIZNS3_15Prefix_MultisetIS5_NS3_33Extractor_Of_Appending_From_AffixIS5_EENS3_8identityEE4sortEvEUlRS5_SI_E_EEEvT_T0_SM_T1_T2_@Base 3.0.0
 _ZSt13__adjust_heapIN9__gnu_cxx17__normal_iteratorIPN7nuspell2v36SuffixIwEESt6vectorIS5_SaIS5_EEEElS5_NS0_5__ops15_Iter_comp_iterIZNS3_15Prefix_MultisetIS5_NS3_33Extractor_Of_Appending_From_AffixIS5_EENS3_15String_ReverserIwEEE4sortEvEUlRS5_SJ_E_EEEvT_T0_SN_T1_T2_@Base 3.0.0
 _ZSt13__adjust_heapIN9__gnu_cxx17__normal_iteratorIPSt4pairINSt7__cxx1112basic_stringIwSt11char_traitsIwESaIwEEES8_ESt6vectorIS9_SaIS9_EEEElS9_NS0_5__ops15_Iter_comp_iterIZN7nuspell2v315Substr_ReplacerIwE9sort_uniqEvEUlRT_RT0_E_EEEvSL_SN_SN_T1_T2_@Base 3.0.0
 _ZSt13__equal_rangeIN9__gnu_cxx17__normal_iteratorIPKSt4pairINSt7__cxx1112basic_stringIwSt11char_traitsIwESaIwEEES8_ESt6vectorIS9_SaIS9_EEEEwNS0_5__ops14_Iter_comp_valIZNK7nuspell2v314Phonetic_TableIwE7replaceERS8_E3CmpEENSG_14_Val_comp_iterISN_EEES2_IT_SR_ESR_SR_RKT0_T1_T2_@Base 3.0.0
 _ZSt13__lower_boundIN9__gnu_cxx17__normal_iteratorIPSt4pairINSt7__cxx1112basic_stringIwSt11char_traitsIwESaIwEEES8_ESt6vectorIS9_SaIS9_EEEES9_NS0_5__ops14_Iter_comp_valIZN7nuspell2v314Phonetic_TableIwE5orderEvEUlRT_RT0_E_EEESL_SL_SL_RKSN_T1_@Base 3.0.0
 _ZSt13__upper_boundIN9__gnu_cxx17__normal_iteratorIPSt4pairINSt7__cxx1112basic_stringIwSt11char_traitsIwESaIwEEES8_ESt6vectorIS9_SaIS9_EEEES9_NS0_5__ops14_Val_comp_iterIZN7nuspell2v314Phonetic_TableIwE5orderEvEUlRT_RT0_E_EEESL_SL_SL_RKSN_T1_@Base 3.0.0
 _ZSt16__insertion_sortIN9__gnu_cxx17__normal_iteratorIPDsNSt7__cxx1112basic_stringIDsSt11char_traitsIDsESaIDsEEEEENS0_5__ops15_Iter_comp_iterIPDoFbRKDsSD_EEEEvT_SH_T0_@Base 3.0.0
 _ZSt16__insertion_sortIN9__gnu_cxx17__normal_iteratorIPN7nuspell2v36PrefixIwEESt6vectorIS5_SaIS5_EEEENS0_5__ops15_Iter_comp_iterIZNS3_15Prefix_MultisetIS5_NS3_33Extractor_Of_Appending_From_AffixIS5_EENS3_8identityEE4sortEvEUlRS5_SI_E_EEEvT_SL_T0_@Base 3.0.0
 _ZSt16__insertion_sortIN9__gnu_cxx17__normal_iteratorIPN7nuspell2v36SuffixIwEESt6vectorIS5_SaIS5_EEEENS0_5__ops15_Iter_comp_iterIZNS3_15Prefix_MultisetIS5_NS3_33Extractor_Of_Appending_From_AffixIS5_EENS3_15String_ReverserIwEEE4sortEvEUlRS5_SJ_E_EEEvT_SM_T0_@Base 3.0.0
 _ZSt16__insertion_sortIN9__gnu_cxx17__normal_iteratorIPSt4pairINSt7__cxx1112basic_stringIwSt11char_traitsIwESaIwEEES8_ESt6vectorIS9_SaIS9_EEEENS0_5__ops15_Iter_comp_iterIZN7nuspell2v314Phonetic_TableIwE5orderEvEUlRT_RT0_E_EEEvSL_SL_SN_@Base 3.0.0
 _ZSt16__insertion_sortIN9__gnu_cxx17__normal_iteratorIPSt4pairINSt7__cxx1112basic_stringIwSt11char_traitsIwESaIwEEES8_ESt6vectorIS9_SaIS9_EEEENS0_5__ops15_Iter_comp_iterIZN7nuspell2v315Substr_ReplacerIwE9sort_uniqEvEUlRT_RT0_E_EEEvSL_SL_SN_@Base 3.0.0
 _ZSt16__introsort_loopIN9__gnu_cxx17__normal_iteratorIPDsNSt7__cxx1112basic_stringIDsSt11char_traitsIDsESaIDsEEEEElNS0_5__ops15_Iter_comp_iterIPDoFbRKDsSD_EEEEvT_SH_T0_T1_@Base 3.0.0
 _ZSt16__introsort_loopIN9__gnu_cxx17__normal_iteratorIPN7nuspell2v36PrefixIwEESt6vectorIS5_SaIS5_EEEElNS0_5__ops15_Iter_comp_iterIZNS3_15Prefix_MultisetIS5_NS3_33Extractor_Of_Appending_From_AffixIS5_EENS3_8identityEE4sortEvEUlRS5_SI_E_EEEvT_SL_T0_T1_@Base 3.0.0
 _ZSt16__introsort_loopIN9__gnu_cxx17__normal_iteratorIPN7nuspell2v36SuffixIwEESt6vectorIS5_SaIS5_EEEElNS0_5__ops15_Iter_comp_iterIZNS3_15Prefix_MultisetIS5_NS3_33Extractor_Of_Appending_From_AffixIS5_EENS3_15String_ReverserIwEEE4sortEvEUlRS5_SJ_E_EEEvT_SM_T0_T1_@Base 3.0.0
 _ZSt16__introsort_loopIN9__gnu_cxx17__normal_iteratorIPSt4pairINSt7__cxx1112basic_stringIwSt11char_traitsIwESaIwEEES8_ESt6vectorIS9_SaIS9_EEEElNS0_5__ops15_Iter_comp_iterIZN7nuspell2v315Substr_ReplacerIwE9sort_uniqEvEUlRT_RT0_E_EEEvSL_SL_SN_T1_@Base 3.0.0
 _ZSt16__merge_adaptiveIN9__gnu_cxx17__normal_iteratorIPSt4pairINSt7__cxx1112basic_stringIwSt11char_traitsIwESaIwEEES8_ESt6vectorIS9_SaIS9_EEEElSA_NS0_5__ops15_Iter_comp_iterIZN7nuspell2v314Phonetic_TableIwE5orderEvEUlRT_RT0_E_EEEvSL_SL_SL_SN_SN_T1_SN_T2_@Base 3.0.0
 _ZSt21__inplace_stable_sortIN9__gnu_cxx17__normal_iteratorIPSt4pairINSt7__cxx1112basic_stringIwSt11char_traitsIwESaIwEEES8_ESt6vectorIS9_SaIS9_EEEENS0_5__ops15_Iter_comp_iterIZN7nuspell2v314Phonetic_TableIwE5orderEvEUlRT_RT0_E_EEEvSL_SL_SN_@Base 3.0.0
 _ZSt22__merge_without_bufferIN9__gnu_cxx17__normal_iteratorIPSt4pairINSt7__cxx1112basic_stringIwSt11char_traitsIwESaIwEEES8_ESt6vectorIS9_SaIS9_EEEElNS0_5__ops15_Iter_comp_iterIZN7nuspell2v314Phonetic_TableIwE5orderEvEUlRT_RT0_E_EEEvSL_SL_SL_SN_SN_T1_@Base 3.0.0
 _ZSt22__stable_sort_adaptiveIN9__gnu_cxx17__normal_iteratorIPSt4pairINSt7__cxx1112basic_stringIwSt11char_traitsIwESaIwEEES8_ESt6vectorIS9_SaIS9_EEEESA_lNS0_5__ops15_Iter_comp_iterIZN7nuspell2v314Phonetic_TableIwE5orderEvEUlRT_RT0_E_EEEvSL_SL_SN_T1_T2_@Base 3.0.0
 _ZSt24__merge_sort_with_bufferIN9__gnu_cxx17__normal_iteratorIPSt4pairINSt7__cxx1112basic_stringIwSt11char_traitsIwESaIwEEES8_ESt6vectorIS9_SaIS9_EEEESA_NS0_5__ops15_Iter_comp_iterIZN7nuspell2v314Phonetic_TableIwE5orderEvEUlRT_RT0_E_EEEvSL_SL_SN_T1_@Base 3.0.0
 _ZSt25__unguarded_linear_insertIN9__gnu_cxx17__normal_iteratorIPN7nuspell2v36PrefixIwEESt6vectorIS5_SaIS5_EEEENS0_5__ops14_Val_comp_iterIZNS3_15Prefix_MultisetIS5_NS3_33Extractor_Of_Appending_From_AffixIS5_EENS3_8identityEE4sortEvEUlRS5_SI_E_EEEvT_T0_@Base 3.0.0
 _ZSt25__unguarded_linear_insertIN9__gnu_cxx17__normal_iteratorIPN7nuspell2v36SuffixIwEESt6vectorIS5_SaIS5_EEEENS0_5__ops14_Val_comp_iterIZNS3_15Prefix_MultisetIS5_NS3_33Extractor_Of_Appending_From_AffixIS5_EENS3_15String_ReverserIwEEE4sortEvEUlRS5_SJ_E_EEEvT_T0_@Base 3.0.0
 _ZSt25__unguarded_linear_insertIN9__gnu_cxx17__normal_iteratorIPSt4pairINSt7__cxx1112basic_stringIwSt11char_traitsIwESaIwEEES8_ESt6vectorIS9_SaIS9_EEEENS0_5__ops14_Val_comp_iterIZN7nuspell2v314Phonetic_TableIwE5orderEvEUlRT_RT0_E_EEEvSL_SN_@Base 3.0.0
 _ZSt25__unguarded_linear_insertIN9__gnu_cxx17__normal_iteratorIPSt4pairINSt7__cxx1112basic_stringIwSt11char_traitsIwESaIwEEES8_ESt6vectorIS9_SaIS9_EEEENS0_5__ops14_Val_comp_iterIZN7nuspell2v315Substr_ReplacerIwE9sort_uniqEvEUlRT_RT0_E_EEEvSL_SN_@Base 3.0.0
 _ZSt9__find_ifIN5boost9container12vec_iteratorIPSt4pairINSt7__cxx1112basic_stringIwSt11char_traitsIwESaIwEEEN7nuspell2v310String_SetIDsEEELb1EEEN9__gnu_cxx5__ops10_Iter_predIZNKSB_13Hash_MultisetISE_S9_NSB_28Extractor_First_of_Word_PairEE11equal_rangeERKS9_EUlRT_E_EEESP_SP_SP_T0_St26random_access_iterator_tag@Base 3.0.0
 _ZSt9__find_ifIN5boost9intrusive16reverse_iteratorINS0_9container12vec_iteratorIPSt4pairINSt7__cxx1112basic_stringIwSt11char_traitsIwESaIwEEEN7nuspell2v310String_SetIDsEEELb0EEEEEN9__gnu_cxx5__ops10_Iter_predIZNSD_13Hash_MultisetISG_SB_NSD_28Extractor_First_of_Word_PairEE6insertERKSG_EUlRT_E_EEESS_SS_SS_T0_St26random_access_iterator_tag@Base 3.0.0
 _ZSt9__find_ifIN5boost9intrusive16reverse_iteratorINS0_9container12vec_iteratorIPSt4pairINSt7__cxx1112basic_stringIwSt11char_traitsIwESaIwEEEN7nuspell2v310String_SetIDsEEELb1EEEEEN9__gnu_cxx5__ops10_Iter_predIZNKSD_13Hash_MultisetISG_SB_NSD_28Extractor_First_of_Word_PairEE11equal_rangeERKSB_EUlRT_E0_EEESS_SS_SS_T0_St26random_access_iterator_tag@Base 3.0.0
 _ZSt9__find_ifIN9__gnu_cxx17__normal_iteratorIPKDsNSt7__cxx1112basic_stringIDsSt11char_traitsIDsESaIDsEEEEENS0_5__ops10_Iter_predIPFbDsEEEET_SG_SG_T0_St26random_access_iterator_tag@Base 3.0.0
 _ZSt9__find_ifIN9__gnu_cxx17__normal_iteratorIPKNSt7__cxx1112basic_stringIDsSt11char_traitsIDsESaIDsEEESt6vectorIS7_SaIS7_EEEENS0_5__ops10_Iter_predIZNK7nuspell2v319Compound_Rule_Table14match_any_ruleERKSA_IPKNSH_10String_SetIDsEESaISM_EEEUlRS8_E_EEET_SU_SU_T0_St26random_access_iterator_tag@Base 3.0.0
 _ZSt9__find_ifIN9__gnu_cxx17__normal_iteratorIPKcNSt7__cxx1112basic_stringIcSt11char_traitsIcESaIcEEEEENS0_5__ops12_Iter_negateIPFbcEEEET_SG_SG_T0_St26random_access_iterator_tag@Base 3.0.0
 _ZSt9__find_ifIN9__gnu_cxx17__normal_iteratorIPKwNSt7__cxx1112basic_stringIwSt11char_traitsIwESaIwEEEEENS0_5__ops10_Iter_predIZN7nuspell9is_numberIwEEbRKNS5_IT_S6_ISF_ESaISF_EEEEUlSF_E_EEESF_SF_SF_T0_St26random_access_iterator_tag@Base 3.0.0
 _ZSt9__find_ifIN9__gnu_cxx17__normal_iteratorIPNSt7__cxx1112basic_stringIwSt11char_traitsIwESaIwEEESt6vectorIS7_SaIS7_EEEENS0_5__ops10_Iter_predIZN7nuspell2v311Break_TableIwE13order_entriesEvEUlRT_E_EEESJ_SJ_SJ_T0_St26random_access_iterator_tag@Base 3.0.0
 _ZSt9__find_ifIN9__gnu_cxx17__normal_iteratorIPNSt7__cxx1112basic_stringIwSt11char_traitsIwESaIwEEESt6vectorIS7_SaIS7_EEEENS0_5__ops16_Iter_equals_valIKS7_EEET_SH_SH_T0_St26random_access_iterator_tag@Base 3.0.0
 _ZSt9__find_ifIN9__gnu_cxx17__normal_iteratorIPSt4pairINSt7__cxx1112basic_stringIwSt11char_traitsIwESaIwEEES8_ESt6vectorIS9_SaIS9_EEEENS0_5__ops10_Iter_predIZN7nuspell2v317Replacement_TableIwE13order_entriesEvEUlRT_E_EEESL_SL_SL_T0_St26random_access_iterator_tag@Base 3.0.0
 _ZSt9__find_ifIN9__gnu_cxx17__normal_iteratorIPwNSt7__cxx1112basic_stringIwSt11char_traitsIwESaIwEEEEENS0_5__ops10_Iter_predIZN7nuspell11erase_charsIwEERDaRNS4_IT_S5_ISF_ESaISF_EEERKSI_EUlwE_EEESF_SF_SF_T0_St26random_access_iterator_tag@Base 3.0.0
 _ZSteqIcEN9__gnu_cxx11__enable_ifIXsrSt9__is_charIT_E7__valueEbE6__typeERKNSt7__cxx1112basic_stringIS3_St11char_traitsIS3_ESaIS3_EEESE_@Base 3.0.0
 _ZSteqIwEN9__gnu_cxx11__enable_ifIXsrSt9__is_charIT_E7__valueEbE6__typeERKNSt7__cxx1112basic_stringIS3_St11char_traitsIS3_ESaIS3_EEESE_@Base 3.0.0
 _ZStplIcSt11char_traitsIcESaIcEENSt7__cxx1112basic_stringIT_T0_T1_EEOS8_PKS5_@Base 3.0.0
 _ZStplIcSt11char_traitsIcESaIcEENSt7__cxx1112basic_stringIT_T0_T1_EEPKS5_RKS8_@Base 3.0.0
 _ZStplIwSt11char_traitsIwESaIwEENSt7__cxx1112basic_stringIT_T0_T1_EERKS8_SA_@Base 3.0.0
 _ZTIN5boost6locale12utf8_codecvtIwEE@Base 3.0.0
 _ZTIN5boost6locale15generic_codecvtIwNS0_12utf8_codecvtIwEELi4EEE@Base 3.0.0
 _ZTIN5boost6locale20generic_codecvt_baseE@Base 3.0.0
 _ZTIN7nuspell2v319Condition_ExceptionE@Base 3.0.0
 _ZTIN7nuspell2v324Dictionary_Loading_ErrorE@Base 3.0.0
 _ZTSN5boost6locale12utf8_codecvtIwEE@Base 3.0.0
 _ZTSN5boost6locale15generic_codecvtIwNS0_12utf8_codecvtIwEELi4EEE@Base 3.0.0
 _ZTSN5boost6locale20generic_codecvt_baseE@Base 3.0.0
 _ZTSN7nuspell2v319Condition_ExceptionE@Base 3.0.0
 _ZTSN7nuspell2v324Dictionary_Loading_ErrorE@Base 3.0.0
 _ZTVN7nuspell2v319Condition_ExceptionE@Base 3.0.0
 _ZTVN7nuspell2v324Dictionary_Loading_ErrorE@Base 3.0.0
